target datalayout = "e-m:e-p270:32:32-p271:32:32-p272:64:64-i64:64-i128:128-f80:128-n8:16:32:64-S128"
target triple = "x86_64-unknown-linux-gnu"

%"class.net::GeneralLossAlgorithm" = type { %"class.net::LossDetectionInterface", %"class.net::QuicTime", i64, i32, i32 }
%"class.net::LossDetectionInterface" = type { ptr }
%"class.net::QuicTime" = type { i64 }
%"class.net::QuicTime::Delta" = type { %"class.base::TimeDelta", i64 }
%"class.base::TimeDelta" = type { i64 }
%"struct.net::TransmissionInfo" = type { %"class.std::vector", i8, i8, i16, %"class.net::QuicTime", i8, i8, i8, i8, i16, i64, %"class.std::__cxx11::list" }
%"class.std::vector" = type { %"struct.std::_Vector_base" }
%"struct.std::_Vector_base" = type { %"struct.std::_Vector_base<net::QuicFrame, std::allocator<net::QuicFrame>>::_Vector_impl" }
%"struct.std::_Vector_base<net::QuicFrame, std::allocator<net::QuicFrame>>::_Vector_impl" = type { %"struct.std::_Vector_base<net::QuicFrame, std::allocator<net::QuicFrame>>::_Vector_impl_data" }
%"struct.std::_Vector_base<net::QuicFrame, std::allocator<net::QuicFrame>>::_Vector_impl_data" = type { ptr, ptr, ptr }
%"class.std::__cxx11::list" = type { %"class.std::__cxx11::_List_base" }
%"class.std::__cxx11::_List_base" = type { %"struct.std::__cxx11::_List_base<net::AckListenerWrapper, std::allocator<net::AckListenerWrapper>>::_List_impl" }
%"struct.std::__cxx11::_List_base<net::AckListenerWrapper, std::allocator<net::AckListenerWrapper>>::_List_impl" = type { %"struct.std::__detail::_List_node_header" }
%"struct.std::__detail::_List_node_header" = type { %"struct.std::__detail::_List_node_base", i64 }
%"struct.std::__detail::_List_node_base" = type { ptr, ptr }
%"class.net::RttStats" = type { %"class.net::QuicTime::Delta", %"class.net::QuicTime::Delta", %"class.net::QuicTime::Delta", %"class.net::QuicTime::Delta", %"class.net::QuicTime::Delta", i64, %"class.net::QuicTime::Delta", %"class.net::QuicTime", i32, %"class.net::WindowedFilter" }
%"class.net::WindowedFilter" = type { %"class.net::QuicTime::Delta", %"class.net::QuicTime::Delta", [3 x %"struct.net::WindowedFilter<net::QuicTime::Delta, net::MinFilter<net::QuicTime::Delta>, net::QuicTime, net::QuicTime::Delta>::Sample"] }
%"struct.net::WindowedFilter<net::QuicTime::Delta, net::MinFilter<net::QuicTime::Delta>, net::QuicTime, net::QuicTime::Delta>::Sample" = type { %"class.net::QuicTime::Delta", %"class.net::QuicTime" }
%"class.net::QuicUnackedPacketMap" = type { i64, i64, %"class.std::deque", i64, i64, i64 }
%"class.std::deque" = type { %"class.std::_Deque_base" }
%"class.std::_Deque_base" = type { %"struct.std::_Deque_base<net::TransmissionInfo, std::allocator<net::TransmissionInfo>>::_Deque_impl" }
%"struct.std::_Deque_base<net::TransmissionInfo, std::allocator<net::TransmissionInfo>>::_Deque_impl" = type { %"struct.std::_Deque_base<net::TransmissionInfo, std::allocator<net::TransmissionInfo>>::_Deque_impl_data" }
%"struct.std::_Deque_base<net::TransmissionInfo, std::allocator<net::TransmissionInfo>>::_Deque_impl_data" = type { ptr, i64, %"struct.std::_Deque_iterator", %"struct.std::_Deque_iterator" }
%"struct.std::_Deque_iterator" = type { ptr, ptr, ptr, ptr }

; Function Attrs: mustprogress nounwind uwtable
define linkonce_odr dso_local void @_ZN4base9TimeDeltaC2Ev(ptr noundef nonnull align 8 dereferenceable(8) %this) unnamed_addr #1 comdat align 2 {
entry:
  %this.addr = alloca ptr, align 8
  store ptr %this, ptr %this.addr, align 8
  %this1 = load ptr, ptr %this.addr, align 8
  %delta_ = getelementptr inbounds %"class.base::TimeDelta", ptr %this1, i32 0, i32 0
  store i64 0, ptr %delta_, align 8
  ret void
}

; Function Attrs: mustprogress nounwind uwtable
define linkonce_odr dso_local noundef nonnull align 8 dereferenceable(8) ptr @_ZN4base9TimeDeltaaSES0_(ptr noundef nonnull align 8 dereferenceable(8) %this, i64 %other.coerce) #1 comdat align 2 {
entry:
  %other = alloca %"class.base::TimeDelta", align 8
  %this.addr = alloca ptr, align 8
  %coerce.dive = getelementptr inbounds %"class.base::TimeDelta", ptr %other, i32 0, i32 0
  store i64 %other.coerce, ptr %coerce.dive, align 8
  store ptr %this, ptr %this.addr, align 8
  %this1 = load ptr, ptr %this.addr, align 8
  %delta_ = getelementptr inbounds %"class.base::TimeDelta", ptr %other, i32 0, i32 0
  %0 = load i64, ptr %delta_, align 8
  %delta_2 = getelementptr inbounds %"class.base::TimeDelta", ptr %this1, i32 0, i32 0
  store i64 %0, ptr %delta_2, align 8
  ret ptr %this1
}

; Function Attrs: mustprogress uwtable
define linkonce_odr dso_local void @_ZN3net8QuicTime5DeltaC2El(ptr noundef nonnull align 8 dereferenceable(16) %this, i64 noundef %time_offset) unnamed_addr #0 comdat align 2 {
entry:
  %this.addr = alloca ptr, align 8
  %time_offset.addr = alloca i64, align 8
  store ptr %this, ptr %this.addr, align 8
  store i64 %time_offset, ptr %time_offset.addr, align 8
  %this1 = load ptr, ptr %this.addr, align 8
  %delta_ = getelementptr inbounds %"class.net::QuicTime::Delta", ptr %this1, i32 0, i32 0
  call void @_ZN4base9TimeDeltaC2Ev(ptr noundef nonnull align 8 dereferenceable(8) %delta_)
  %time_offset_ = getelementptr inbounds %"class.net::QuicTime::Delta", ptr %this1, i32 0, i32 1
  %0 = load i64, ptr %time_offset.addr, align 8
  store i64 %0, ptr %time_offset_, align 8
  ret void
}

; Function Attrs: mustprogress nounwind uwtable
define linkonce_odr dso_local noundef zeroext i1 @_ZN3netltENS_8QuicTime5DeltaES1_(i64 %lhs.coerce0, i64 %lhs.coerce1, i64 %rhs.coerce0, i64 %rhs.coerce1) #1 comdat {
entry:
  %lhs = alloca %"class.net::QuicTime::Delta", align 8
  %rhs = alloca %"class.net::QuicTime::Delta", align 8
  %0 = getelementptr inbounds { i64, i64 }, ptr %lhs, i32 0, i32 0
  store i64 %lhs.coerce0, ptr %0, align 8
  %1 = getelementptr inbounds { i64, i64 }, ptr %lhs, i32 0, i32 1
  store i64 %lhs.coerce1, ptr %1, align 8
  %2 = getelementptr inbounds { i64, i64 }, ptr %rhs, i32 0, i32 0
  store i64 %rhs.coerce0, ptr %2, align 8
  %3 = getelementptr inbounds { i64, i64 }, ptr %rhs, i32 0, i32 1
  store i64 %rhs.coerce1, ptr %3, align 8
  %time_offset_ = getelementptr inbounds %"class.net::QuicTime::Delta", ptr %lhs, i32 0, i32 1
  %4 = load i64, ptr %time_offset_, align 8
  %time_offset_1 = getelementptr inbounds %"class.net::QuicTime::Delta", ptr %rhs, i32 0, i32 1
  %5 = load i64, ptr %time_offset_1, align 8
  %cmp = icmp slt i64 %4, %5
  ret i1 %cmp
}

; Function Attrs: mustprogress uwtable
define linkonce_odr dso_local noundef nonnull align 8 dereferenceable(16) ptr @_ZN3net8QuicTime5DeltaaSEOS1_(ptr noundef nonnull align 8 dereferenceable(16) %this, ptr noundef nonnull align 8 dereferenceable(16) %0) #0 comdat align 2 {
entry:
  %this.addr = alloca ptr, align 8
  %.addr = alloca ptr, align 8
  %agg.tmp = alloca %"class.base::TimeDelta", align 8
  store ptr %this, ptr %this.addr, align 8
  store ptr %0, ptr %.addr, align 8
  %this1 = load ptr, ptr %this.addr, align 8
  %delta_ = getelementptr inbounds %"class.net::QuicTime::Delta", ptr %this1, i32 0, i32 0
  %1 = load ptr, ptr %.addr, align 8
  %delta_2 = getelementptr inbounds %"class.net::QuicTime::Delta", ptr %1, i32 0, i32 0
  call void @llvm.memcpy.p0.p0.i64(ptr align 8 %agg.tmp, ptr align 8 %delta_2, i64 8, i1 false)
  %coerce.dive = getelementptr inbounds %"class.base::TimeDelta", ptr %agg.tmp, i32 0, i32 0
  %2 = load i64, ptr %coerce.dive, align 8
  %call = call noundef nonnull align 8 dereferenceable(8) ptr @_ZN4base9TimeDeltaaSES0_(ptr noundef nonnull align 8 dereferenceable(8) %delta_, i64 %2)
  %3 = load ptr, ptr %.addr, align 8
  %time_offset_ = getelementptr inbounds %"class.net::QuicTime::Delta", ptr %3, i32 0, i32 1
  %4 = load i64, ptr %time_offset_, align 8
  %time_offset_3 = getelementptr inbounds %"class.net::QuicTime::Delta", ptr %this1, i32 0, i32 1
  store i64 %4, ptr %time_offset_3, align 8
  ret ptr %this1
}

; Function Attrs: mustprogress uwtable
define linkonce_odr dso_local { i64, i64 } @_ZN3netrsENS_8QuicTime5DeltaEm(i64 %lhs.coerce0, i64 %lhs.coerce1, i64 noundef %rhs) #0 comdat {
entry:
  %retval = alloca %"class.net::QuicTime::Delta", align 8
  %lhs = alloca %"class.net::QuicTime::Delta", align 8
  %rhs.addr = alloca i64, align 8
  %0 = getelementptr inbounds { i64, i64 }, ptr %lhs, i32 0, i32 0
  store i64 %lhs.coerce0, ptr %0, align 8
  %1 = getelementptr inbounds { i64, i64 }, ptr %lhs, i32 0, i32 1
  store i64 %lhs.coerce1, ptr %1, align 8
  store i64 %rhs, ptr %rhs.addr, align 8
  %time_offset_ = getelementptr inbounds %"class.net::QuicTime::Delta", ptr %lhs, i32 0, i32 1
  %2 = load i64, ptr %time_offset_, align 8
  %3 = load i64, ptr %rhs.addr, align 8
  %shr = ashr i64 %2, %3
  call void @_ZN3net8QuicTime5DeltaC2El(ptr noundef nonnull align 8 dereferenceable(16) %retval, i64 noundef %shr)
  %4 = load { i64, i64 }, ptr %retval, align 8
  ret { i64, i64 } %4
}

; Function Attrs: mustprogress uwtable
define linkonce_odr dso_local { i64, i64 } @_ZN3net8QuicTime5Delta4ZeroEv() #0 comdat align 2 {
entry:
  %retval = alloca %"class.net::QuicTime::Delta", align 8
  call void @_ZN3net8QuicTime5DeltaC2El(ptr noundef nonnull align 8 dereferenceable(16) %retval, i64 noundef 0)
  %0 = load { i64, i64 }, ptr %retval, align 8
  ret { i64, i64 } %0
}

; Function Attrs: mustprogress uwtable
define linkonce_odr dso_local noundef nonnull align 8 dereferenceable(16) ptr @_ZSt3maxIN3net8QuicTime5DeltaEERKT_S5_S5_(ptr noundef nonnull align 8 dereferenceable(16) %__a, ptr noundef nonnull align 8 dereferenceable(16) %__b) #0 comdat {
entry:
  %retval = alloca ptr, align 8
  %__a.addr = alloca ptr, align 8
  %__b.addr = alloca ptr, align 8
  %agg.tmp = alloca %"class.net::QuicTime::Delta", align 8
  %agg.tmp1 = alloca %"class.net::QuicTime::Delta", align 8
  store ptr %__a, ptr %__a.addr, align 8
  store ptr %__b, ptr %__b.addr, align 8
  %0 = load ptr, ptr %__a.addr, align 8
  call void @llvm.memcpy.p0.p0.i64(ptr align 8 %agg.tmp, ptr align 8 %0, i64 16, i1 false)
  %1 = load ptr, ptr %__b.addr, align 8
  call void @llvm.memcpy.p0.p0.i64(ptr align 8 %agg.tmp1, ptr align 8 %1, i64 16, i1 false)
  %2 = getelementptr inbounds { i64, i64 }, ptr %agg.tmp, i32 0, i32 0
  %3 = load i64, ptr %2, align 8
  %4 = getelementptr inbounds { i64, i64 }, ptr %agg.tmp, i32 0, i32 1
  %5 = load i64, ptr %4, align 8
  %6 = getelementptr inbounds { i64, i64 }, ptr %agg.tmp1, i32 0, i32 0
  %7 = load i64, ptr %6, align 8
  %8 = getelementptr inbounds { i64, i64 }, ptr %agg.tmp1, i32 0, i32 1
  %9 = load i64, ptr %8, align 8
  %call = call noundef zeroext i1 @_ZN3netltENS_8QuicTime5DeltaES1_(i64 %3, i64 %5, i64 %7, i64 %9)
  br i1 %call, label %if.then, label %if.end

if.then:                                          ; preds = %entry
  %10 = load ptr, ptr %__b.addr, align 8
  store ptr %10, ptr %retval, align 8
  br label %return

if.end:                                           ; preds = %entry
  %11 = load ptr, ptr %__a.addr, align 8
  store ptr %11, ptr %retval, align 8
  br label %return

return:                                           ; preds = %if.end, %if.then
  %12 = load ptr, ptr %retval, align 8
  ret ptr %12
}

; Function Attrs: mustprogress nounwind uwtable
define linkonce_odr dso_local { i64, i64 } @_ZNK3net8RttStats10latest_rttEv(ptr noundef nonnull align 8 dereferenceable(224) %this) #1 comdat align 2 {
entry:
  %retval = alloca %"class.net::QuicTime::Delta", align 8
  %this.addr = alloca ptr, align 8
  store ptr %this, ptr %this.addr, align 8
  %this1 = load ptr, ptr %this.addr, align 8
  %latest_rtt_ = getelementptr inbounds %"class.net::RttStats", ptr %this1, i32 0, i32 0
  call void @llvm.memcpy.p0.p0.i64(ptr align 8 %retval, ptr align 8 %latest_rtt_, i64 16, i1 false)
  %0 = load { i64, i64 }, ptr %retval, align 8
  ret { i64, i64 } %0
}

; Function Attrs: mustprogress nounwind uwtable
define linkonce_odr dso_local { i64, i64 } @_ZNK3net8RttStats13previous_srttEv(ptr noundef nonnull align 8 dereferenceable(224) %this) #1 comdat align 2 {
entry:
  %retval = alloca %"class.net::QuicTime::Delta", align 8
  %this.addr = alloca ptr, align 8
  store ptr %this, ptr %this.addr, align 8
  %this1 = load ptr, ptr %this.addr, align 8
  %previous_srtt_ = getelementptr inbounds %"class.net::RttStats", ptr %this1, i32 0, i32 3
  call void @llvm.memcpy.p0.p0.i64(ptr align 8 %retval, ptr align 8 %previous_srtt_, i64 16, i1 false)
  %0 = load { i64, i64 }, ptr %retval, align 8
  ret { i64, i64 } %0
}

; Function Attrs: mustprogress uwtable
define linkonce_odr dso_local { i64, i64 } @_ZN3netmiENS_8QuicTimeES0_(i64 %lhs.coerce, i64 %rhs.coerce) #0 comdat {
entry:
  %retval = alloca %"class.net::QuicTime::Delta", align 8
  %lhs = alloca %"class.net::QuicTime", align 8
  %rhs = alloca %"class.net::QuicTime", align 8
  %coerce.dive = getelementptr inbounds %"class.net::QuicTime", ptr %lhs, i32 0, i32 0
  store i64 %lhs.coerce, ptr %coerce.dive, align 8
  %coerce.dive1 = getelementptr inbounds %"class.net::QuicTime", ptr %rhs, i32 0, i32 0
  store i64 %rhs.coerce, ptr %coerce.dive1, align 8
  %time_ = getelementptr inbounds %"class.net::QuicTime", ptr %lhs, i32 0, i32 0
  %0 = load i64, ptr %time_, align 8
  %time_2 = getelementptr inbounds %"class.net::QuicTime", ptr %rhs, i32 0, i32 0
  %1 = load i64, ptr %time_2, align 8
  %sub = sub nsw i64 %0, %1
  call void @_ZN3net8QuicTime5DeltaC2El(ptr noundef nonnull align 8 dereferenceable(16) %retval, i64 noundef %sub)
  %2 = load { i64, i64 }, ptr %retval, align 8
  ret { i64, i64 } %2
}

; Function Attrs: mustprogress nounwind uwtable
define linkonce_odr dso_local noundef i64 @_ZNK3net20QuicUnackedPacketMap19largest_sent_packetEv(ptr noundef nonnull align 8 dereferenceable(120) %this) #1 comdat align 2 {
entry:
  %this.addr = alloca ptr, align 8
  store ptr %this, ptr %this.addr, align 8
  %this1 = load ptr, ptr %this.addr, align 8
  %largest_sent_packet_ = getelementptr inbounds %"class.net::QuicUnackedPacketMap", ptr %this1, i32 0, i32 0
  %0 = load i64, ptr %largest_sent_packet_, align 8
  ret i64 %0
}

; Function Attrs: mustprogress uwtable
define dso_local void @_ZN3net20GeneralLossAlgorithm26SpuriousRetransmitDetectedERKNS_20QuicUnackedPacketMapENS_8QuicTimeERKNS_8RttStatsEm(ptr noundef nonnull align 8 dereferenceable(32) %this, ptr noundef nonnull align 8 dereferenceable(120) %unacked_packets, i64 %time.coerce, ptr noundef nonnull align 8 dereferenceable(224) %rtt_stats, i64 noundef %spurious_retransmission) unnamed_addr #0 align 2 {
entry:
  %time = alloca %"class.net::QuicTime", align 8
  %this.addr = alloca ptr, align 8
  %unacked_packets.addr = alloca ptr, align 8
  %rtt_stats.addr = alloca ptr, align 8
  %spurious_retransmission.addr = alloca i64, align 8
  %extra_time_needed = alloca %"class.net::QuicTime::Delta", align 8
  %agg.tmp = alloca %"class.net::QuicTime", align 8
  %agg.tmp7 = alloca %"class.net::QuicTime", align 8
  %max_rtt = alloca %"class.net::QuicTime::Delta", align 8
  %ref.tmp = alloca %"class.net::QuicTime::Delta", align 8
  %ref.tmp13 = alloca %"class.net::QuicTime::Delta", align 8
  %proposed_extra_time = alloca %"class.net::QuicTime::Delta", align 8
  %ref.tmp17 = alloca %"class.net::QuicTime::Delta", align 8
  %agg.tmp18 = alloca %"class.net::QuicTime::Delta", align 8
  %agg.tmp23 = alloca %"class.net::QuicTime::Delta", align 8
  %agg.tmp24 = alloca %"class.net::QuicTime::Delta", align 8
  %coerce.dive = getelementptr inbounds %"class.net::QuicTime", ptr %time, i32 0, i32 0
  store i64 %time.coerce, ptr %coerce.dive, align 8
  store ptr %this, ptr %this.addr, align 8
  store ptr %unacked_packets, ptr %unacked_packets.addr, align 8
  store ptr %rtt_stats, ptr %rtt_stats.addr, align 8
  store i64 %spurious_retransmission, ptr %spurious_retransmission.addr, align 8
  %this1 = load ptr, ptr %this.addr, align 8
  %loss_type_ = getelementptr inbounds %"class.net::GeneralLossAlgorithm", ptr %this1, i32 0, i32 3
  %0 = load i32, ptr %loss_type_, align 8
  %cmp = icmp ne i32 %0, 2
  br i1 %cmp, label %if.then, label %lor.lhs.false

lor.lhs.false:                                    ; preds = %entry
  %reordering_shift_ = getelementptr inbounds %"class.net::GeneralLossAlgorithm", ptr %this1, i32 0, i32 4
  %1 = load i32, ptr %reordering_shift_, align 4
  %cmp2 = icmp eq i32 %1, 0
  br i1 %cmp2, label %if.then, label %if.end

if.then:                                          ; preds = %lor.lhs.false, %entry
  br label %do.end

if.end:                                           ; preds = %lor.lhs.false
  %2 = load i64, ptr %spurious_retransmission.addr, align 8
  %largest_sent_on_spurious_retransmit_ = getelementptr inbounds %"class.net::GeneralLossAlgorithm", ptr %this1, i32 0, i32 2
  %3 = load i64, ptr %largest_sent_on_spurious_retransmit_, align 8
  %cmp3 = icmp ule i64 %2, %3
  br i1 %cmp3, label %if.then4, label %if.end5

if.then4:                                         ; preds = %if.end
  br label %do.end

if.end5:                                          ; preds = %if.end
  %4 = load ptr, ptr %unacked_packets.addr, align 8
  %call = call noundef i64 @_ZNK3net20QuicUnackedPacketMap19largest_sent_packetEv(ptr noundef nonnull align 8 dereferenceable(120) %4)
  %largest_sent_on_spurious_retransmit_6 = getelementptr inbounds %"class.net::GeneralLossAlgorithm", ptr %this1, i32 0, i32 2
  store i64 %call, ptr %largest_sent_on_spurious_retransmit_6, align 8
  call void @llvm.memcpy.p0.p0.i64(ptr align 8 %agg.tmp, ptr align 8 %time, i64 8, i1 false)
  %5 = load ptr, ptr %unacked_packets.addr, align 8
  %6 = load i64, ptr %spurious_retransmission.addr, align 8
  %call8 = call noundef nonnull align 8 dereferenceable(80) ptr @_ZNK3net20QuicUnackedPacketMap19GetTransmissionInfoEm(ptr noundef nonnull align 8 dereferenceable(120) %5, i64 noundef %6)
  %sent_time = getelementptr inbounds %"struct.net::TransmissionInfo", ptr %call8, i32 0, i32 4
  call void @llvm.memcpy.p0.p0.i64(ptr align 8 %agg.tmp7, ptr align 8 %sent_time, i64 8, i1 false)
  %coerce.dive9 = getelementptr inbounds %"class.net::QuicTime", ptr %agg.tmp, i32 0, i32 0
  %7 = load i64, ptr %coerce.dive9, align 8
  %coerce.dive10 = getelementptr inbounds %"class.net::QuicTime", ptr %agg.tmp7, i32 0, i32 0
  %8 = load i64, ptr %coerce.dive10, align 8
  %call11 = call { i64, i64 } @_ZN3netmiENS_8QuicTimeES0_(i64 %7, i64 %8)
  %9 = getelementptr inbounds { i64, i64 }, ptr %extra_time_needed, i32 0, i32 0
  %10 = extractvalue { i64, i64 } %call11, 0
  store i64 %10, ptr %9, align 8
  %11 = getelementptr inbounds { i64, i64 }, ptr %extra_time_needed, i32 0, i32 1
  %12 = extractvalue { i64, i64 } %call11, 1
  store i64 %12, ptr %11, align 8
  %13 = load ptr, ptr %rtt_stats.addr, align 8
  %call12 = call { i64, i64 } @_ZNK3net8RttStats13previous_srttEv(ptr noundef nonnull align 8 dereferenceable(224) %13)
  %14 = getelementptr inbounds { i64, i64 }, ptr %ref.tmp, i32 0, i32 0
  %15 = extractvalue { i64, i64 } %call12, 0
  store i64 %15, ptr %14, align 8
  %16 = getelementptr inbounds { i64, i64 }, ptr %ref.tmp, i32 0, i32 1
  %17 = extractvalue { i64, i64 } %call12, 1
  store i64 %17, ptr %16, align 8
  %18 = load ptr, ptr %rtt_stats.addr, align 8
  %call14 = call { i64, i64 } @_ZNK3net8RttStats10latest_rttEv(ptr noundef nonnull align 8 dereferenceable(224) %18)
  %19 = getelementptr inbounds { i64, i64 }, ptr %ref.tmp13, i32 0, i32 0
  %20 = extractvalue { i64, i64 } %call14, 0
  store i64 %20, ptr %19, align 8
  %21 = getelementptr inbounds { i64, i64 }, ptr %ref.tmp13, i32 0, i32 1
  %22 = extractvalue { i64, i64 } %call14, 1
  store i64 %22, ptr %21, align 8
  %call15 = call noundef nonnull align 8 dereferenceable(16) ptr @_ZSt3maxIN3net8QuicTime5DeltaEERKT_S5_S5_(ptr noundef nonnull align 8 dereferenceable(16) %ref.tmp, ptr noundef nonnull align 8 dereferenceable(16) %ref.tmp13)
  call void @llvm.memcpy.p0.p0.i64(ptr align 8 %max_rtt, ptr align 8 %call15, i64 16, i1 false)
  %call16 = call { i64, i64 } @_ZN3net8QuicTime5Delta4ZeroEv()
  %23 = getelementptr inbounds { i64, i64 }, ptr %proposed_extra_time, i32 0, i32 0
  %24 = extractvalue { i64, i64 } %call16, 0
  store i64 %24, ptr %23, align 8
  %25 = getelementptr inbounds { i64, i64 }, ptr %proposed_extra_time, i32 0, i32 1
  %26 = extractvalue { i64, i64 } %call16, 1
  store i64 %26, ptr %25, align 8
  br label %do.body

do.body:                                          ; preds = %land.end, %if.end5
  call void @llvm.memcpy.p0.p0.i64(ptr align 8 %agg.tmp18, ptr align 8 %max_rtt, i64 16, i1 false)
  %reordering_shift_19 = getelementptr inbounds %"class.net::GeneralLossAlgorithm", ptr %this1, i32 0, i32 4
  %27 = load i32, ptr %reordering_shift_19, align 4
  %conv = sext i32 %27 to i64
  %28 = getelementptr inbounds { i64, i64 }, ptr %agg.tmp18, i32 0, i32 0
  %29 = load i64, ptr %28, align 8
  %30 = getelementptr inbounds { i64, i64 }, ptr %agg.tmp18, i32 0, i32 1
  %31 = load i64, ptr %30, align 8
  %call20 = call { i64, i64 } @_ZN3netrsENS_8QuicTime5DeltaEm(i64 %29, i64 %31, i64 noundef %conv)
  %32 = getelementptr inbounds { i64, i64 }, ptr %ref.tmp17, i32 0, i32 0
  %33 = extractvalue { i64, i64 } %call20, 0
  store i64 %33, ptr %32, align 8
  %34 = getelementptr inbounds { i64, i64 }, ptr %ref.tmp17, i32 0, i32 1
  %35 = extractvalue { i64, i64 } %call20, 1
  store i64 %35, ptr %34, align 8
  %call21 = call noundef nonnull align 8 dereferenceable(16) ptr @_ZN3net8QuicTime5DeltaaSEOS1_(ptr noundef nonnull align 8 dereferenceable(16) %proposed_extra_time, ptr noundef nonnull align 8 dereferenceable(16) %ref.tmp17)
  %reordering_shift_22 = getelementptr inbounds %"class.net::GeneralLossAlgorithm", ptr %this1, i32 0, i32 4
  %36 = load i32, ptr %reordering_shift_22, align 4
  %dec = add nsw i32 %36, -1
  store i32 %dec, ptr %reordering_shift_22, align 4
  br label %do.cond

do.cond:                                          ; preds = %do.body
  call void @llvm.memcpy.p0.p0.i64(ptr align 8 %agg.tmp23, ptr align 8 %proposed_extra_time, i64 16, i1 false)
  call void @llvm.memcpy.p0.p0.i64(ptr align 8 %agg.tmp24, ptr align 8 %extra_time_needed, i64 16, i1 false)
  %37 = getelementptr inbounds { i64, i64 }, ptr %agg.tmp23, i32 0, i32 0
  %38 = load i64, ptr %37, align 8
  %39 = getelementptr inbounds { i64, i64 }, ptr %agg.tmp23, i32 0, i32 1
  %40 = load i64, ptr %39, align 8
  %41 = getelementptr inbounds { i64, i64 }, ptr %agg.tmp24, i32 0, i32 0
  %42 = load i64, ptr %41, align 8
  %43 = getelementptr inbounds { i64, i64 }, ptr %agg.tmp24, i32 0, i32 1
  %44 = load i64, ptr %43, align 8
  %call25 = call noundef zeroext i1 @_ZN3netltENS_8QuicTime5DeltaES1_(i64 %38, i64 %40, i64 %42, i64 %44)
  br i1 %call25, label %land.rhs, label %land.end

land.rhs:                                         ; preds = %do.cond
  %reordering_shift_26 = getelementptr inbounds %"class.net::GeneralLossAlgorithm", ptr %this1, i32 0, i32 4
  %45 = load i32, ptr %reordering_shift_26, align 4
  %cmp27 = icmp sgt i32 %45, 0
  br label %land.end

land.end:                                         ; preds = %land.rhs, %do.cond
  %46 = phi i1 [ false, %do.cond ], [ %cmp27, %land.rhs ]
  br i1 %46, label %do.body, label %do.end, !llvm.loop !7

do.end:                                           ; preds = %land.end, %if.then4, %if.then
  ret void
}