; Function Attrs: mustprogress uwtable
define dso_local void @_ZN3net20GeneralLossAlgorithm26SpuriousRetransmitDetectedERKNS_20QuicUnackedPacketMapENS_8QuicTimeERKNS_8RttStatsEm(ptr nocapture noundef nonnull align 8 dereferenceable(32) %this, ptr noundef nonnull align 8 dereferenceable(120) %unacked_packets, i64 %time.coerce, ptr nocapture noundef nonnull readonly align 8 dereferenceable(224) %rtt_stats, i64 noundef %spurious_retransmission) unnamed_addr #3 align 2 {
entry:
  %loss_type_ = getelementptr inbounds i8, ptr %this, i64 24
  %0 = load i32, ptr %loss_type_, align 8
  %cmp.not = icmp eq i32 %0, 2
  br i1 %cmp.not, label %lor.lhs.false, label %do.end

lor.lhs.false:                                    ; preds = %entry
  %reordering_shift_ = getelementptr inbounds i8, ptr %this, i64 28
  %1 = load i32, ptr %reordering_shift_, align 4
  %cmp2 = icmp eq i32 %1, 0
  br i1 %cmp2, label %do.end, label %if.end

if.end:                                           ; preds = %lor.lhs.false
  %largest_sent_on_spurious_retransmit_ = getelementptr inbounds i8, ptr %this, i64 16
  %2 = load i64, ptr %largest_sent_on_spurious_retransmit_, align 8
  %cmp3.not = icmp ult i64 %2, %spurious_retransmission
  br i1 %cmp3.not, label %if.end5, label %do.end

if.end5:                                          ; preds = %if.end
  %3 = load i64, ptr %unacked_packets, align 8
  store i64 %3, ptr %largest_sent_on_spurious_retransmit_, align 8
  %call8 = tail call noundef nonnull align 8 dereferenceable(80) ptr @_ZNK3net20QuicUnackedPacketMap19GetTransmissionInfoEm(ptr noundef nonnull align 8 dereferenceable(120) %unacked_packets, i64 noundef %spurious_retransmission)
  %sent_time = getelementptr inbounds i8, ptr %call8, i64 32
  %agg.tmp7.sroa.0.0.copyload = load i64, ptr %sent_time, align 8
  %sub.i = sub nsw i64 %time.coerce, %agg.tmp7.sroa.0.0.copyload
  %retval.sroa.2.0.previous_srtt_.sroa_idx.i = getelementptr inbounds i8, ptr %rtt_stats, i64 56
  %retval.sroa.2.0.copyload.i = load i64, ptr %retval.sroa.2.0.previous_srtt_.sroa_idx.i, align 8
  %retval.sroa.2.0.latest_rtt_.sroa_idx.i = getelementptr inbounds i8, ptr %rtt_stats, i64 8
  %retval.sroa.2.0.copyload.i6 = load i64, ptr %retval.sroa.2.0.latest_rtt_.sroa_idx.i, align 8
  %max_rtt.sroa.2.0.copyload.sroa.speculated = tail call i64 @llvm.smax.i64(i64 %retval.sroa.2.0.copyload.i, i64 %retval.sroa.2.0.copyload.i6)
  %reordering_shift_.promoted = load i32, ptr %reordering_shift_, align 4
  %4 = zext i32 %reordering_shift_.promoted to i64
  br label %do.body

do.body:                                          ; preds = %do.body, %if.end5
  %indvars.iv = phi i64 [ %indvars.iv.next, %do.body ], [ %4, %if.end5 ]
  %shr.i = ashr i64 %max_rtt.sroa.2.0.copyload.sroa.speculated, %indvars.iv
  %indvars.iv.next = add nsw i64 %indvars.iv, -1
  %cmp.i = icmp slt i64 %shr.i, %sub.i
  %5 = trunc i64 %indvars.iv to i32
  %cmp27 = icmp sgt i32 %5, 1
  %or.cond = and i1 %cmp27, %cmp.i
  br i1 %or.cond, label %do.body, label %do.end.loopexit, !llvm.loop !30

do.end.loopexit:                                  ; preds = %do.body
  %indvars = trunc i64 %indvars.iv.next to i32
  store i32 %indvars, ptr %reordering_shift_, align 4
  br label %do.end

do.end:                                           ; preds = %do.end.loopexit, %if.end, %entry, %lor.lhs.false
  ret void
}